#include <math.h>
#include <stdio.h>
#include <stdlib.h>
#include <string.h>


int main() 
{ 
	int height[50],flag[50],max,i,j; 
	int num ; 

	scanf("%d",&num); 

	for (i = 0; i < num; i ++) 
	{ 
		scanf("%d",&height[i]); 
		flag[i] = 1; 
	} 
	for (i = 0; i < num; i ++) 
	{ 
		for (j = 0; j < i; j ++) 
		{ 
			if (height[j] >= height[i]) 
			{ 
				if (flag[j] + 1 > flag[i])
					flag[i] = flag[j] + 1; 
			} 
		} 
	} 
	
	max = flag[0]; 
	for (i = 1; i < num; i ++) 
	{ 
		if (flag[i] > max) 
			max = flag[i]; 
	} 
	printf("%d\n",max); 
	return 0; 
}
